; Function Attrs: mustprogress nofree nounwind willreturn memory(write, argmem: none, inaccessiblemem: readwrite) uwtable
define noalias noundef ptr @Msat_IntVecAlloc(i32 noundef %0) local_unnamed_addr #0 {
  %2 = tail call noalias dereferenceable_or_null(16) ptr @malloc(i64 noundef 16) #19
  %3 = add i32 %0, -1
  %or.cond = icmp ult i32 %3, 15
  %spec.store.select = select i1 %or.cond, i32 16, i32 %0
  %4 = getelementptr inbounds nuw i8, ptr %2, i64 8
  store i32 0, ptr %4, align 8, !tbaa !3
  %5 = getelementptr inbounds nuw i8, ptr %2, i64 12
  store i32 %spec.store.select, ptr %5, align 4, !tbaa !10
  %.not = icmp eq i32 %spec.store.select, 0
  br i1 %.not, label %10, label %6

6:                                                ; preds = %1
  %7 = sext i32 %spec.store.select to i64
  %8 = shl nsw i64 %7, 2
  %9 = tail call noalias ptr @malloc(i64 noundef %8) #19
  br label %10

10:                                               ; preds = %1, %6
  %11 = phi ptr [ %9, %6 ], [ null, %1 ]
  store ptr %11, ptr %2, align 8, !tbaa !11
  ret ptr %2
}